Microchip MPLAB XC8 Compiler V2.50

Linker command line:

-W-3 \
  --edf=D:\Program Files\Microchip\xc8\v2.50\pic\dat\20240725155939_en.msgs \
  -cn -h+dist/default/production\Lab6Micros.X.production.sym \
  --cmf=dist/default/production\Lab6Micros.X.production.cmf -z -Q18F4550 \
  -oC:\Users\ASUSTU~1\AppData\Local\Temp\xcBseh8.1\driver_tmp_3.obj \
  -Mdist/default/production/Lab6Micros.X.production.map \
  --md=C:\Users\ASUSTU~1\AppData\Local\Temp\xcBseh8.1\driver_tmp_0.dat -E1 \
  -ver=XC8 Compiler -ACODE=00h-07FFFh -ACONST=00h-07FFFh \
  -ASMALLCONST=0800h-08FFhx120 -AMEDIUMCONST=0800h-07FFFh -ACOMRAM=01h-05Fh \
  -AABS1=00h-07FFh -ABIGRAM=01h-07FFh -ARAM=060h-0FFh,0100h-01FFhx7 \
  -ABANK0=060h-0FFh -ABANK1=0100h-01FFh -ABANK2=0200h-02FFh \
  -ABANK3=0300h-03FFh -ABANK4=0400h-04FFh -ABANK5=0500h-05FFh \
  -ABANK6=0600h-06FFh -ABANK7=0700h-07FFh -ASFR=0F60h-0FFFh \
  -ABIGSFR=0F60h-0FFFh -ACONFIG=0300000h-030000Dh -AIDLOC=0200000h-0200007h \
  -AEEDATA=0F00000h-0F000FFh -peeprom_data=EEDATA \
  -preset_vec=00h,intcode=8h,intcodelo,powerup,init -pramtop=0800h \
  -psmallconst=SMALLCONST -pmediumconst=MEDIUMCONST -pconst=CONST \
  -AFARRAM=00h-00h \
  -prdata=COMRAM,nvrram=COMRAM,nvbit=COMRAM,rbss=COMRAM,rbit=COMRAM \
  -pfarbss=FARRAM,fardata=FARRAM,nvFARRAM=FARRAM \
  -pintsave_regs=BIGRAM,bigbss=BIGRAM,bigdata=BIGRAM -pbss=RAM \
  -pidata=CODE,irdata=CODE,ibigdata=CODE,ifardata=CODE -prparam=COMRAM \
  C:\Users\ASUSTU~1\AppData\Local\Temp\xcBseh8.1\driver_tmp_15.obj \
  dist/default/production\Lab6Micros.X.production.obj 

Object code version is 3.11

Machine type is 18F4550



                Name                               Link     Load   Length Selector   Space Scale
C:\Users\ASUSTU~1\AppData\Local\Temp\xcBseh8.1\driver_tmp_15.obj
                idloc                            200000   200000        8        0       5
                config                           300000   300000        E        0       4
                init                                  E        E        4        4       0
                reset_vec                             0        0        4        0       0
dist/default/production\Lab6Micros.X.production.obj
                intcode                               8        8        6        4       0
                idloc                            200000   200000        8        0       5
                config                           300000   300000        E        0       4
                temp                                 48       48        1        1       1
                mediumconst                        7EDE     7EDE      122     3F6F       0
                text75                             2DF8     2DF8        E        4       0
                text74                             27D2     27D2       56        4       0
                text73                             2960     2960       46        4       0
                text72                             2DAC     2DAC       16        4       0
                text71                             28CC     28CC       4E        4       0
                text70                             2CEC     2CEC       26        4       0
                text69                             2BBC     2BBC       34        4       0
                text68                             2DD6     2DD6       14        4       0
                text67                             2D96     2D96       16        4       0
                text66                             2C4C     2C4C       2A        4       0
                text65                             2B4E     2B4E       38        4       0
                text64                             287A     287A       52        4       0
                text63                             200C     200C       A4        4       0
                text62                             2B16     2B16       38        4       0
                text61                             2C9E     2C9E       28        4       0
                text60                             190C     190C       E6        4       0
                text59                             234C     234C       7A        4       0
                text58                             2E18     2E18        6        4       0
                text57                             2250     2250       82        4       0
                text56                             258C     258C       6E        4       0
                text55                             1EBA     1EBA       AE        4       0
                text54                             1BAE     1BAE       DC        4       0
                text53                             109C     109C      152        4       0
                text52                             2AA4     2AA4       3A        4       0
                text51                             26C0     26C0       60        4       0
                intcode_body                       1338     1338      120        4       0
                text49                             23C6     23C6       74        4       0
                text48                             2D12     2D12       24        4       0
                text47                             1E0C     1E0C       AE        4       0
                text46                              D60      D60      1A6        4       0
                text45                             2A2A     2A2A       40        4       0
                text44                             1C8A     1C8A       D4        4       0
                text43                             21CE     21CE       82        4       0
                text42                             25FA     25FA       66        4       0
                text41                             2720     2720       5C        4       0
                text40                             2CC6     2CC6       26        4       0
                text39                             164C     164C       F4        4       0
                text38                             1458     1458       FE        4       0
                text37                             1556     1556       F6        4       0
                text36                             2ADE     2ADE       38        4       0
                text35                             2C76     2C76       28        4       0
                text34                              B76      B76      1EA        4       0
                text33                             2D36     2D36       1C        4       0
                text32                             2E06     2E06        C        4       0
                text31                             214C     214C       82        4       0
                text30                             251E     251E       6E        4       0
                text29                              804      804      372        4       0
                text28                               12       12      7F2        4       0
                text27                             29EA     29EA       40        4       0
                text26                             2B86     2B86       36        4       0
                text25                             1826     1826       E6        4       0
                text24                             19F2     19F2       E0        4       0
                text23                             2DEA     2DEA        E        4       0
                text22                             277C     277C       56        4       0
                text21                             291A     291A       46        4       0
                text20                             2DC2     2DC2       14        4       0
                text19                             2E22     2E22        2     1711       0
                text18                             2BF0     2BF0       32        4       0
                text17                             24AC     24AC       72        4       0
                text16                             243A     243A       72        4       0
                text15                             2D52     2D52       18        4       0
                text14                             20B0     20B0       9C        4       0
                text13                             2828     2828       52        4       0
                text12                             1F68     1F68       A4        4       0
                text11                             2D80     2D80       16        4       0
                text10                             2C22     2C22       2A        4       0
                text9                              2A6A     2A6A       3A        4       0
                text8                              2D6A     2D6A       16        4       0
                text7                              1740     1740       E6        4       0
                text6                              22D2     22D2       7A        4       0
                text5                              2E12     2E12        6        4       0
                text4                              2660     2660       60        4       0
                text3                              11EE     11EE      14A        4       0
                text2                              1D5E     1D5E       AE        4       0
                text1                              1AD2     1AD2       DC        4       0
                text0                               F06      F06      196        4       0
                cstackCOMRAM                          1        1       30        1       1
                cstackBANK0                          60       60       50       60       1
                bssBANK0                             B0       B0       14       60       1
                dataCOMRAM                           45       45        3        1       1
                bssCOMRAM                            31       31       14        1       1
                cinit                              29A6     29A6       44        4       0
                idataCOMRAM                        2E1E     2E1E        3        4       0

TOTAL           Name                               Link     Load   Length     Space
        CLASS   CODE           
                intcode                               8        8        6         0
                init                                  E        E        4         0
                reset_vec                             0        0        4         0
                text75                             2DF8     2DF8        E         0
                text74                             27D2     27D2       56         0
                text73                             2960     2960       46         0
                text72                             2DAC     2DAC       16         0
                text71                             28CC     28CC       4E         0
                text70                             2CEC     2CEC       26         0
                text69                             2BBC     2BBC       34         0
                text68                             2DD6     2DD6       14         0
                text67                             2D96     2D96       16         0
                text66                             2C4C     2C4C       2A         0
                text65                             2B4E     2B4E       38         0
                text64                             287A     287A       52         0
                text63                             200C     200C       A4         0
                text62                             2B16     2B16       38         0
                text61                             2C9E     2C9E       28         0
                text60                             190C     190C       E6         0
                text59                             234C     234C       7A         0
                text58                             2E18     2E18        6         0
                text57                             2250     2250       82         0
                text56                             258C     258C       6E         0
                text55                             1EBA     1EBA       AE         0
                text54                             1BAE     1BAE       DC         0
                text53                             109C     109C      152         0
                text52                             2AA4     2AA4       3A         0
                text51                             26C0     26C0       60         0
                intcode_body                       1338     1338      120         0
                text49                             23C6     23C6       74         0
                text48                             2D12     2D12       24         0
                text47                             1E0C     1E0C       AE         0
                text46                              D60      D60      1A6         0
                text45                             2A2A     2A2A       40         0
                text44                             1C8A     1C8A       D4         0
                text43                             21CE     21CE       82         0
                text42                             25FA     25FA       66         0
                text41                             2720     2720       5C         0
                text40                             2CC6     2CC6       26         0
                text39                             164C     164C       F4         0
                text38                             1458     1458       FE         0
                text37                             1556     1556       F6         0
                text36                             2ADE     2ADE       38         0
                text35                             2C76     2C76       28         0
                text34                              B76      B76      1EA         0
                text33                             2D36     2D36       1C         0
                text32                             2E06     2E06        C         0
                text31                             214C     214C       82         0
                text30                             251E     251E       6E         0
                text29                              804      804      372         0
                text28                               12       12      7F2         0
                text27                             29EA     29EA       40         0
                text26                             2B86     2B86       36         0
                text25                             1826     1826       E6         0
                text24                             19F2     19F2       E0         0
                text23                             2DEA     2DEA        E         0
                text22                             277C     277C       56         0
                text21                             291A     291A       46         0
                text20                             2DC2     2DC2       14         0
                text19                             2E22     2E22        2         0
                text18                             2BF0     2BF0       32         0
                text17                             24AC     24AC       72         0
                text16                             243A     243A       72         0
                text15                             2D52     2D52       18         0
                text14                             20B0     20B0       9C         0
                text13                             2828     2828       52         0
                text12                             1F68     1F68       A4         0
                text11                             2D80     2D80       16         0
                text10                             2C22     2C22       2A         0
                text9                              2A6A     2A6A       3A         0
                text8                              2D6A     2D6A       16         0
                text7                              1740     1740       E6         0
                text6                              22D2     22D2       7A         0
                text5                              2E12     2E12        6         0
                text4                              2660     2660       60         0
                text3                              11EE     11EE      14A         0
                text2                              1D5E     1D5E       AE         0
                text1                              1AD2     1AD2       DC         0
                text0                               F06      F06      196         0
                cinit                              29A6     29A6       44         0
                idataCOMRAM                        2E1E     2E1E        3         0

        CLASS   CONST          

        CLASS   SMALLCONST     

        CLASS   MEDIUMCONST    
                mediumconst                        7EDE     7EDE      122         0

        CLASS   COMRAM         
                temp                                 48       48        1         1
                cstackCOMRAM                          1        1       30         1
                dataCOMRAM                           45       45        3         1
                bssCOMRAM                            31       31       14         1

        CLASS   ABS1           

        CLASS   BIGRAM         

        CLASS   RAM            

        CLASS   BANK0          
                cstackBANK0                          60       60       50         1
                bssBANK0                             B0       B0       14         1

        CLASS   BANK1          

        CLASS   BANK2          

        CLASS   BANK3          

        CLASS   BANK4          

        CLASS   BANK5          

        CLASS   BANK6          

        CLASS   BANK7          

        CLASS   SFR            

        CLASS   BIGSFR         

        CLASS   CONFIG         
                config                           300000   300000        E         4

        CLASS   IDLOC          
                idloc                            200000   200000        8         5

        CLASS   EEDATA         

        CLASS   FARRAM         

        CLASS   HEAP           

        CLASS   STACK          



SEGMENTS        Name                           Load    Length   Top    Selector   Space  Class

                reset_vec                      000000  000004  000004         0       0  CODE    
                cstackCOMRAM                   000001  000048  000049         1       1  COMRAM  
                intcode                        000008  002E19  002E21         4       0  CODE    
                cstackBANK0                    000060  000064  0000C4        60       1  BANK0   
                text19                         002E22  000002  002E24      1711       0  CODE    
                mediumconst                    007EDE  000122  008000      3F6F       0  MEDIUMCO


UNUSED ADDRESS RANGES

        Name                Unused          Largest block    Delta
        BANK0            0000C4-0000FF               3C
        BANK1            000100-0001FF              100
        BANK2            000200-0002FF              100
        BANK3            000300-0003FF              100
        BANK4            000400-0004FF              100
        BANK5            000500-0005FF              100
        BANK6            000600-0006FF              100
        BANK7            000700-0007FF              100
        BIGRAM           000049-00005F               17
                         0000C4-0007FF              73C
        BIGSFR           000F60-000FFF               A0
        CODE             000004-000007                4
                         002E21-002E21                1
                         002E24-007EDD             50BA
        COMRAM           000049-00005F               17
        CONST            000004-000007                4
                         002E21-002E21                1
                         002E24-007EDD             50BA
        EEDATA           F00000-F000FF              100
        MEDIUMCONST      002E21-002E21                1
                         002E24-007EDD             50BA
        RAM              0000C4-0007FF              100
        SFR              000F60-000FFF               A0
        SMALLCONST       002E21-002E21                1
                         002E24-007EDD              100

                                  Symbol Table

?___awdiv                 cstackCOMRAM 00001E
?___awmod                 cstackCOMRAM 000018
?___awtoft                cstackCOMRAM 000020
?___ftadd                 cstackBANK0  000070
?___ftdiv                 cstackCOMRAM 000020
?___ftmul                 cstackCOMRAM 000026
?___ftneg                 cstackCOMRAM 000018
?___ftpack                cstackCOMRAM 000018
?___ftsub                 cstackBANK0  00007C
?___fttol                 cstackBANK0  00006D
?___lldiv                 cstackCOMRAM 000018
?___llmod                 cstackCOMRAM 000025
?___lltoft                cstackCOMRAM 000020
?___lwdiv                 cstackCOMRAM 000018
?___wmul                  cstackCOMRAM 000018
?__div_to_l_              cstackCOMRAM 000018
?__tdiv_to_l_             cstackCOMRAM 000018
?_fround                  cstackBANK0  000066
?_printf                  cstackBANK0  000082
?_scale                   cstackBANK0  000066
?i2___awdiv               cstackCOMRAM 000001
?i2___awmod               cstackCOMRAM 000001
?i2___lwdiv               cstackCOMRAM 000001
?i2___wmul                cstackCOMRAM 000001
ComandoLCD@a              cstackCOMRAM 00001C
ConfiguraLCD@a            cstackCOMRAM 000018
DireccionaLCD@a           cstackCOMRAM 00001C
EnviaDato@a               cstackCOMRAM 00001B
EscribeLCD_c@a            cstackCOMRAM 00001C
EscribeLCD_n8@a           cstackCOMRAM 000024
EscribeLCD_n8@b           cstackCOMRAM 000020
EscribeLCD_n8@centena     cstackCOMRAM 000021
EscribeLCD_n8@decena      cstackCOMRAM 000022
EscribeLCD_n8@unidad      cstackCOMRAM 000023
MedirDistancia@aux        cstackCOMRAM 000021
MensajeLCD_Var@a          cstackCOMRAM 00001D
RecibirComando@comando    cstackCOMRAM 000025
RetardoLCD@a              cstackCOMRAM 000019
Transmitir@pwm            cstackBANK0  0000A6
_ADC                      text24       0019F2
_ADC$1090                 cstackBANK0  0000AB
_ADCON0                   (abs)        000FC2
_ADCON0bits               (abs)        000FC2
_ADCON1                   (abs)        000FC1
_ADCON2                   (abs)        000FC0
_ADRESH                   (abs)        000FC4
_ADRESL                   (abs)        000FC3
_BAUDCON                  (abs)        000FB8
_BorraLCD                 text20       002DC2
_CCP1CON                  (abs)        000FBD
_CCP2CON                  (abs)        000FBA
_CCP2IF                   (abs)        007D08
_CCPR1L                   (abs)        000FBE
_CCPR2                    (abs)        000FBB
_CaracterCara             text17       0024AC
_CaracterQbert            text16       00243A
_ComandoLCD               text18       002BF0
_ConfiguraLCD             text15       002D52
_CursorAInicio            text19       002E22
_DireccionaLCD            text8        002D6A
_EnviaDato                text21       00291A
_EscribeLCD_c             text11       002D80
_EscribeLCD_n8            text7        001740
_GIE                      (abs)        007F97
_HabilitaLCD              text23       002DEA
_ISR                      intcode      000008
_InicializaLCD            text14       0020B0
_LATA1                    (abs)        007C49
_LATA3                    (abs)        007C4B
_LATA4                    (abs)        007C4C
_LATA5                    (abs)        007C4D
_LATB                     (abs)        000F8A
_LATC0                    (abs)        007C58
_LATC2                    (abs)        007C5A
_LATD                     (abs)        000F8C
_LATE0                    (abs)        007C68
_LATE1                    (abs)        007C69
_LATE2                    (abs)        007C6A
_MedirDistancia           text12       001F68
_MensajeLCD_Var           text10       002C22
_OSCCON                   (abs)        000FD3
_PORTB                    (abs)        000F81
_PR2                      (abs)        000FCB
_RB4                      (abs)        007C0C
_RB5                      (abs)        007C0D
_RB6                      (abs)        007C0E
_RB7                      (abs)        007C0F
_RBIE                     (abs)        007F93
_RBIF                     (abs)        007F90
_RBPU                     (abs)        007F8F
_RC0                      (abs)        007C10
_RC1                      (abs)        007C11
_RCIF                     (abs)        007CF5
_RCREG                    (abs)        000FAE
_RCSTA                    (abs)        000FAB
_RGB                      text6        0022D2
_RecibirComando           text3        0011EE
_RetardoLCD               text22       00277C
_SEG                      text5        002E12
_SPBRG                    (abs)        000FAF
_T1CON                    (abs)        000FCD
_T2CON                    (abs)        000FCA
_TMR1                     (abs)        000FCE
_TMR1IF                   (abs)        007CF0
_TMR1ON                   (abs)        007E68
_TMR2                     (abs)        000FCC
_TMR2ON                   (abs)        007E52
_TRISA                    (abs)        000F92
_TRISA0                   (abs)        007C90
_TRISB                    (abs)        000F93
_TRISC0                   (abs)        007CA0
_TRISC2                   (abs)        007CA2
_TRISD                    (abs)        000F95
_TRISD0                   (abs)        007CA8
_TRISE0                   (abs)        007CB0
_TRISE1                   (abs)        007CB1
_TRISE2                   (abs)        007CB2
_TRMT                     (abs)        007D61
_TXREG                    (abs)        000FAD
_TXSTA                    (abs)        000FAC
_Tecla                    bssCOMRAM    000044
_Transmitir               text27       0029EA
__HRAM                    (abs)        000000
__H__absolute__           __absolute__ 000000
__Habs1                   abs1         000000
__Hbank0                  bank0        000000
__Hbank1                  bank1        000000
__Hbank2                  bank2        000000
__Hbank3                  bank3        000000
__Hbank4                  bank4        000000
__Hbank5                  bank5        000000
__Hbank6                  bank6        000000
__Hbank7                  bank7        000000
__Hbigbss                 bigbss       000000
__Hbigdata                bigdata      000000
__Hbigram                 bigram       000000
__Hbigsfr                 bigsfr       000000
__Hbss                    bss          000000
__HbssBANK0               bssBANK0     000000
__HbssCOMRAM              bssCOMRAM    000000
__Hcinit                  cinit        000000
__Hclrtext                clrtext      000000
__Hcomram                 comram       000000
__Hconfig                 config       30000E
__Hconst                  const        000000
__HcstackBANK0            cstackBANK0  000000
__HcstackCOMRAM           cstackCOMRAM 000000
__Hdata                   data         000000
__HdataCOMRAM             dataCOMRAM   000000
__Heeprom_data            eeprom_data  000000
__Hfarbss                 farbss       000000
__Hfardata                fardata      000000
__Hheap                   heap         000000
__Hibigdata               ibigdata     000000
__Hidata                  idata        000000
__HidataCOMRAM            idataCOMRAM  000000
__Hidloc                  idloc        200008
__Hifardata               ifardata     000000
__Hinit                   init         000012
__Hintcode                intcode      00000E
__Hintcode_body           intcode_body 000000
__Hintcodelo              intcodelo    00000E
__Hintentry               intentry     000000
__Hintret                 intret       000000
__Hintsave_regs           intsave_regs 000000
__Hirdata                 irdata       000000
__Hmediumconst            mediumconst  008000
__HnvFARRAM               nvFARRAM     000000
__Hnvbit                  nvbit        000000
__Hnvrram                 nvrram       000000
__Hparam                  rparam       000000
__Hpowerup                powerup      00000E
__Hram                    ram          000000
__Hramtop                 ramtop       000800
__Hrbit                   rbit         000000
__Hrbss                   rbss         000000
__Hrdata                  rdata        000000
__Hreset_vec              reset_vec    000004
__Hrparam                 rparam       000000
__Hsfr                    sfr          000000
__Hsivt_hi                sivt_hi      000000
__Hsivt_lo                sivt_lo      000000
__Hsmallconst             smallconst   000000
__Hspace_0                (abs)        008000
__Hspace_1                (abs)        0000C4
__Hspace_2                (abs)        000000
__Hspace_4                (abs)        60000E
__Hstack                  stack        000000
__Hstruct                 struct       000000
__Htemp                   temp         000049
__Htext                   text         000000
__Htext0                  text0        000000
__Htext1                  text1        000000
__Htext10                 text10       000000
__Htext11                 text11       000000
__Htext12                 text12       000000
__Htext13                 text13       000000
__Htext14                 text14       000000
__Htext15                 text15       000000
__Htext16                 text16       000000
__Htext17                 text17       000000
__Htext18                 text18       000000
__Htext19                 text19       000000
__Htext2                  text2        000000
__Htext20                 text20       000000
__Htext21                 text21       000000
__Htext22                 text22       000000
__Htext23                 text23       000000
__Htext24                 text24       000000
__Htext25                 text25       000000
__Htext26                 text26       000000
__Htext27                 text27       000000
__Htext28                 text28       000000
__Htext29                 text29       000000
__Htext3                  text3        000000
__Htext30                 text30       000000
__Htext31                 text31       000000
__Htext32                 text32       000000
__Htext33                 text33       000000
__Htext34                 text34       000000
__Htext35                 text35       000000
__Htext36                 text36       000000
__Htext37                 text37       000000
__Htext38                 text38       000000
__Htext39                 text39       000000
__Htext4                  text4        000000
__Htext40                 text40       000000
__Htext41                 text41       000000
__Htext42                 text42       000000
__Htext43                 text43       000000
__Htext44                 text44       000000
__Htext45                 text45       000000
__Htext46                 text46       000000
__Htext47                 text47       000000
__Htext48                 text48       000000
__Htext49                 text49       000000
__Htext5                  text5        000000
__Htext51                 text51       000000
__Htext52                 text52       000000
__Htext53                 text53       000000
__Htext54                 text54       000000
__Htext55                 text55       000000
__Htext56                 text56       000000
__Htext57                 text57       000000
__Htext58                 text58       000000
__Htext59                 text59       000000
__Htext6                  text6        000000
__Htext60                 text60       000000
__Htext61                 text61       000000
__Htext62                 text62       000000
__Htext63                 text63       000000
__Htext64                 text64       000000
__Htext65                 text65       000000
__Htext66                 text66       000000
__Htext67                 text67       000000
__Htext68                 text68       000000
__Htext69                 text69       000000
__Htext7                  text7        000000
__Htext70                 text70       000000
__Htext71                 text71       000000
__Htext72                 text72       000000
__Htext73                 text73       000000
__Htext74                 text74       000000
__Htext75                 text75       000000
__Htext8                  text8        000000
__Htext9                  text9        000000
__LRAM                    (abs)        000001
__L__absolute__           __absolute__ 000000
__Labs1                   abs1         000000
__Lbank0                  bank0        000000
__Lbank1                  bank1        000000
__Lbank2                  bank2        000000
__Lbank3                  bank3        000000
__Lbank4                  bank4        000000
__Lbank5                  bank5        000000
__Lbank6                  bank6        000000
__Lbank7                  bank7        000000
__Lbigbss                 bigbss       000000
__Lbigdata                bigdata      000000
__Lbigram                 bigram       000000
__Lbigsfr                 bigsfr       000000
__Lbss                    bss          000000
__LbssBANK0               bssBANK0     000000
__LbssCOMRAM              bssCOMRAM    000000
__Lcinit                  cinit        000000
__Lclrtext                clrtext      000000
__Lcomram                 comram       000000
__Lconfig                 config       000000
__Lconst                  const        000000
__LcstackBANK0            cstackBANK0  000000
__LcstackCOMRAM           cstackCOMRAM 000000
__Ldata                   data         000000
__LdataCOMRAM             dataCOMRAM   000000
__Leeprom_data            eeprom_data  000000
__Lfarbss                 farbss       000000
__Lfardata                fardata      000000
__Lheap                   heap         000000
__Libigdata               ibigdata     000000
__Lidata                  idata        000000
__LidataCOMRAM            idataCOMRAM  000000
__Lidloc                  idloc        000000
__Lifardata               ifardata     000000
__Linit                   init         00000E
__Lintcode                intcode      000008
__Lintcode_body           intcode_body 000000
__Lintcodelo              intcodelo    00000E
__Lintentry               intentry     000000
__Lintret                 intret       000000
__Lintsave_regs           intsave_regs 000000
__Lirdata                 irdata       000000
__Lmediumconst            mediumconst  007EDE
__LnvFARRAM               nvFARRAM     000000
__Lnvbit                  nvbit        000000
__Lnvrram                 nvrram       000000
__Lparam                  rparam       000000
__Lpowerup                powerup      00000E
__Lram                    ram          000000
__Lramtop                 ramtop       000800
__Lrbit                   rbit         000000
__Lrbss                   rbss         000000
__Lrdata                  rdata        000000
__Lreset_vec              reset_vec    000000
__Lrparam                 rparam       000000
__Lsfr                    sfr          000000
__Lsivt_hi                sivt_hi      000000
__Lsivt_lo                sivt_lo      000000
__Lsmallconst             smallconst   000000
__Lspace_0                (abs)        000000
__Lspace_1                (abs)        000000
__Lspace_2                (abs)        000000
__Lspace_4                (abs)        000000
__Lstack                  stack        000000
__Lstruct                 struct       000000
__Ltemp                   temp         000048
__Ltext                   text         000000
__Ltext0                  text0        000000
__Ltext1                  text1        000000
__Ltext10                 text10       000000
__Ltext11                 text11       000000
__Ltext12                 text12       000000
__Ltext13                 text13       000000
__Ltext14                 text14       000000
__Ltext15                 text15       000000
__Ltext16                 text16       000000
__Ltext17                 text17       000000
__Ltext18                 text18       000000
__Ltext19                 text19       000000
__Ltext2                  text2        000000
__Ltext20                 text20       000000
__Ltext21                 text21       000000
__Ltext22                 text22       000000
__Ltext23                 text23       000000
__Ltext24                 text24       000000
__Ltext25                 text25       000000
__Ltext26                 text26       000000
__Ltext27                 text27       000000
__Ltext28                 text28       000000
__Ltext29                 text29       000000
__Ltext3                  text3        000000
__Ltext30                 text30       000000
__Ltext31                 text31       000000
__Ltext32                 text32       000000
__Ltext33                 text33       000000
__Ltext34                 text34       000000
__Ltext35                 text35       000000
__Ltext36                 text36       000000
__Ltext37                 text37       000000
__Ltext38                 text38       000000
__Ltext39                 text39       000000
__Ltext4                  text4        000000
__Ltext40                 text40       000000
__Ltext41                 text41       000000
__Ltext42                 text42       000000
__Ltext43                 text43       000000
__Ltext44                 text44       000000
__Ltext45                 text45       000000
__Ltext46                 text46       000000
__Ltext47                 text47       000000
__Ltext48                 text48       000000
__Ltext49                 text49       000000
__Ltext5                  text5        000000
__Ltext51                 text51       000000
__Ltext52                 text52       000000
__Ltext53                 text53       000000
__Ltext54                 text54       000000
__Ltext55                 text55       000000
__Ltext56                 text56       000000
__Ltext57                 text57       000000
__Ltext58                 text58       000000
__Ltext59                 text59       000000
__Ltext6                  text6        000000
__Ltext60                 text60       000000
__Ltext61                 text61       000000
__Ltext62                 text62       000000
__Ltext63                 text63       000000
__Ltext64                 text64       000000
__Ltext65                 text65       000000
__Ltext66                 text66       000000
__Ltext67                 text67       000000
__Ltext68                 text68       000000
__Ltext69                 text69       000000
__Ltext7                  text7        000000
__Ltext70                 text70       000000
__Ltext71                 text71       000000
__Ltext72                 text72       000000
__Ltext73                 text73       000000
__Ltext74                 text74       000000
__Ltext75                 text75       000000
__Ltext8                  text8        000000
__Ltext9                  text9        000000
__S0                      (abs)        008000
__S1                      (abs)        0000C4
__S4                      (abs)        000000
__S5                      (abs)        000000
___awdiv                  text31       00214C
___awdiv@counter          cstackCOMRAM 000022
___awdiv@dividend         cstackCOMRAM 00001E
___awdiv@divisor          cstackCOMRAM 000020
___awdiv@quotient         cstackCOMRAM 000024
___awdiv@sign             cstackCOMRAM 000023
___awmod                  text30       00251E
___awmod@counter          cstackCOMRAM 00001C
___awmod@dividend         cstackCOMRAM 000018
___awmod@divisor          cstackCOMRAM 00001A
___awmod@sign             cstackCOMRAM 00001D
___awtoft                 text26       002B86
___awtoft@c               cstackCOMRAM 000020
___awtoft@sign            cstackCOMRAM 000023
___ftadd                  text46       000D60
___ftadd@exp1             cstackBANK0  00007B
___ftadd@exp2             cstackBANK0  00007A
___ftadd@f1               cstackBANK0  000070
___ftadd@f2               cstackBANK0  000073
___ftadd@sign             cstackBANK0  000079
___ftdiv                  text25       001826
___ftdiv@cntr             cstackCOMRAM 000029
___ftdiv@exp              cstackCOMRAM 00002D
___ftdiv@f1               cstackCOMRAM 000020
___ftdiv@f2               cstackCOMRAM 000023
___ftdiv@f3               cstackCOMRAM 00002A
___ftdiv@sign             cstackCOMRAM 00002E
___ftge                   text49       0023C6
___ftge@ff1               cstackCOMRAM 000018
___ftge@ff2               cstackCOMRAM 00001B
___ftmul                  text37       001556
___ftmul@cntr             cstackBANK0  000064
___ftmul@exp              cstackBANK0  000060
___ftmul@f1               cstackCOMRAM 000026
___ftmul@f2               cstackCOMRAM 000029
___ftmul@f3_as_product    cstackBANK0  000061
___ftmul@sign             cstackBANK0  000065
___ftneg                  text48       002D12
___ftneg@f1               cstackCOMRAM 000018
___ftpack                 text47       001E0C
___ftpack@arg             cstackCOMRAM 000018
___ftpack@exp             cstackCOMRAM 00001B
___ftpack@sign            cstackCOMRAM 00001C
___ftsub                  text45       002A2A
___ftsub@f1               cstackBANK0  00007C
___ftsub@f2               cstackBANK0  00007F
___fttol                  text44       001C8A
___fttol@exp1             cstackBANK0  00007B
___fttol@f1               cstackBANK0  00006D
___fttol@lval             cstackBANK0  000077
___fttol@sign1            cstackBANK0  000076
___heap_hi                (abs)        000000
___heap_lo                (abs)        000000
___inthi_sp               stack        000000
___inthi_stack_hi         stack        000000
___inthi_stack_lo         stack        000000
___intlo_sp               stack        000000
___intlo_stack_hi         stack        000000
___intlo_stack_lo         stack        000000
___lbdiv                  text36       002ADE
___lbdiv@counter          cstackCOMRAM 00001E
___lbdiv@dividend         cstackCOMRAM 00001D
___lbdiv@divisor          cstackCOMRAM 00001C
___lbdiv@quotient         cstackCOMRAM 00001F
___lbmod                  text35       002C76
___lbmod@counter          cstackCOMRAM 00001A
___lbmod@dividend         cstackCOMRAM 000019
___lbmod@divisor          cstackCOMRAM 000018
___lbmod@rem              cstackCOMRAM 00001B
___lldiv                  text43       0021CE
___lldiv@counter          cstackCOMRAM 000024
___lldiv@dividend         cstackCOMRAM 000018
___lldiv@divisor          cstackCOMRAM 00001C
___lldiv@quotient         cstackCOMRAM 000020
___llmod                  text42       0025FA
___llmod@counter          cstackCOMRAM 00002D
___llmod@dividend         cstackCOMRAM 000025
___llmod@divisor          cstackCOMRAM 000029
___lltoft                 text41       002720
___lltoft@c               cstackCOMRAM 000020
___lltoft@exp             cstackCOMRAM 000028
___lwdiv                  text13       002828
___lwdiv@counter          cstackCOMRAM 00001E
___lwdiv@dividend         cstackCOMRAM 000018
___lwdiv@divisor          cstackCOMRAM 00001A
___lwdiv@quotient         cstackCOMRAM 00001C
___param_bank             (abs)        000000
___rparam_used            (abs)        000001
___sp                     stack        000000
___stack_hi               stack        000000
___stack_lo               stack        000000
___wmul                   text40       002CC6
___wmul@multiplicand      cstackCOMRAM 00001A
___wmul@multiplier        cstackCOMRAM 000018
___wmul@product           cstackCOMRAM 00001C
__accesstop               (abs)        000060
__activetblptr            (abs)        000002
__div_to_l_               text39       00164C
__div_to_l_@cntr          cstackCOMRAM 000022
__div_to_l_@exp1          cstackCOMRAM 000023
__div_to_l_@f1            cstackCOMRAM 000018
__div_to_l_@f2            cstackCOMRAM 00001B
__div_to_l_@quot          cstackCOMRAM 00001E
__end_of_ADC              text24       001AD2
__end_of_BorraLCD         text20       002DD6
__end_of_CaracterCara     text17       00251E
__end_of_CaracterQbert    text16       0024AC
__end_of_ComandoLCD       text18       002C22
__end_of_ConfiguraLCD     text15       002D6A
__end_of_CursorAInicio    text19       002E24
__end_of_DireccionaLCD    text8        002D80
__end_of_EnviaDato        text21       002960
__end_of_EscribeLCD_c     text11       002D96
__end_of_EscribeLCD_n8    text7        001826
__end_of_HabilitaLCD      text23       002DF8
__end_of_ISR              intcode_body 001458
__end_of_InicializaLCD    text14       00214C
__end_of_MedirDistancia   text12       00200C
__end_of_MensajeLCD_Var   text10       002C4C
__end_of_RGB              text6        00234C
__end_of_RecibirComando   text3        001338
__end_of_RetardoLCD       text22       0027D2
__end_of_SEG              text5        002E18
__end_of_Transmitir       text27       002A2A
__end_of___awdiv          text31       0021CE
__end_of___awmod          text30       00258C
__end_of___awtoft         text26       002BBC
__end_of___ftadd          text46       000F06
__end_of___ftdiv          text25       00190C
__end_of___ftge           text49       00243A
__end_of___ftmul          text37       00164C
__end_of___ftneg          text48       002D36
__end_of___ftpack         text47       001EBA
__end_of___ftsub          text45       002A6A
__end_of___fttol          text44       001D5E
__end_of___lbdiv          text36       002B16
__end_of___lbmod          text35       002C9E
__end_of___lldiv          text43       002250
__end_of___llmod          text42       002660
__end_of___lltoft         text41       00277C
__end_of___lwdiv          text13       00287A
__end_of___wmul           text40       002CEC
__end_of__div_to_l_       text39       001740
__end_of__initialization  cinit        0029DC
__end_of__npowers_        mediumconst  007F2D
__end_of__powers_         mediumconst  007F06
__end_of__tdiv_to_l_      text38       001556
__end_of_borrarTexto      text65       002B86
__end_of_contador         text1        001BAE
__end_of_dpowers          mediumconst  007F55
__end_of_escribirDig      text71       00291A
__end_of_fin              text2        001E0C
__end_of_fround           text34       000D60
__end_of_isdigit          text33       002D52
__end_of_luzFondo         text69       002BF0
__end_of_main             text0        00109C
__end_of_ok               text53       0011EE
__end_of_parEmerg         text9        002AA4
__end_of_printf           text28       000804
__end_of_putch            text32       002E12
__end_of_reiCon           text4        0026C0
__end_of_scale            text29       000B76
__end_ofi2_BorraLCD       text68       002DEA
__end_ofi2_DireccionaLCD  text67       002DAC
__end_ofi2_EnviaDato      text73       0029A6
__end_ofi2_EscribeLCD_c   text72       002DC2
__end_ofi2_EscribeLCD_n8  text60       0019F2
__end_ofi2_HabilitaLCD    text75       002E06
__end_ofi2_MedirDistancia text63       0020B0
__end_ofi2_MensajeLCD_Var text66       002C76
__end_ofi2_RGB            text59       0023C6
__end_ofi2_RetardoLCD     text74       002828
__end_ofi2_SEG            text58       002E1E
__end_ofi2___awdiv        text57       0022D2
__end_ofi2___awmod        text56       0025FA
__end_ofi2___lbdiv        text62       002B4E
__end_ofi2___lbmod        text61       002CC6
__end_ofi2___lwdiv        text64       0028CC
__end_ofi2___wmul         text70       002D12
__end_ofi2_contador       text54       001C8A
__end_ofi2_fin            text55       001F68
__end_ofi2_parEmerg       text52       002ADE
__end_ofi2_reiCon         text51       002720
__initialization          cinit        0029A6
__mediumconst             mediumconst  007EDE
__npowers_                mediumconst  007F06
__pbssBANK0               bssBANK0     0000B0
__pbssCOMRAM              bssCOMRAM    000031
__pcinit                  cinit        0029A6
__pcstackBANK0            cstackBANK0  000060
__pcstackCOMRAM           cstackCOMRAM 000001
__pdataCOMRAM             dataCOMRAM   000045
__pidataCOMRAM            idataCOMRAM  002E1E
__pintcode                intcode      000008
__pintcode_body           intcode_body 001338
__pmediumconst            mediumconst  007EDE
__powers_                 mediumconst  007EDF
__ptext0                  text0        000F06
__ptext1                  text1        001AD2
__ptext10                 text10       002C22
__ptext11                 text11       002D80
__ptext12                 text12       001F68
__ptext13                 text13       002828
__ptext14                 text14       0020B0
__ptext15                 text15       002D52
__ptext16                 text16       00243A
__ptext17                 text17       0024AC
__ptext18                 text18       002BF0
__ptext19                 text19       002E22
__ptext2                  text2        001D5E
__ptext20                 text20       002DC2
__ptext21                 text21       00291A
__ptext22                 text22       00277C
__ptext23                 text23       002DEA
__ptext24                 text24       0019F2
__ptext25                 text25       001826
__ptext26                 text26       002B86
__ptext27                 text27       0029EA
__ptext28                 text28       000012
__ptext29                 text29       000804
__ptext3                  text3        0011EE
__ptext30                 text30       00251E
__ptext31                 text31       00214C
__ptext32                 text32       002E06
__ptext33                 text33       002D36
__ptext34                 text34       000B76
__ptext35                 text35       002C76
__ptext36                 text36       002ADE
__ptext37                 text37       001556
__ptext38                 text38       001458
__ptext39                 text39       00164C
__ptext4                  text4        002660
__ptext40                 text40       002CC6
__ptext41                 text41       002720
__ptext42                 text42       0025FA
__ptext43                 text43       0021CE
__ptext44                 text44       001C8A
__ptext45                 text45       002A2A
__ptext46                 text46       000D60
__ptext47                 text47       001E0C
__ptext48                 text48       002D12
__ptext49                 text49       0023C6
__ptext5                  text5        002E12
__ptext51                 text51       0026C0
__ptext52                 text52       002AA4
__ptext53                 text53       00109C
__ptext54                 text54       001BAE
__ptext55                 text55       001EBA
__ptext56                 text56       00258C
__ptext57                 text57       002250
__ptext58                 text58       002E18
__ptext59                 text59       00234C
__ptext6                  text6        0022D2
__ptext60                 text60       00190C
__ptext61                 text61       002C9E
__ptext62                 text62       002B16
__ptext63                 text63       00200C
__ptext64                 text64       00287A
__ptext65                 text65       002B4E
__ptext66                 text66       002C4C
__ptext67                 text67       002D96
__ptext68                 text68       002DD6
__ptext69                 text69       002BBC
__ptext7                  text7        001740
__ptext70                 text70       002CEC
__ptext71                 text71       0028CC
__ptext72                 text72       002DAC
__ptext73                 text73       002960
__ptext74                 text74       0027D2
__ptext75                 text75       002DF8
__ptext8                  text8        002D6A
__ptext9                  text9        002A6A
__ramtop                  ramtop       000800
__smallconst              smallconst   000000
__tdiv_to_l_              text38       001458
__tdiv_to_l_@cntr         cstackCOMRAM 000025
__tdiv_to_l_@exp1         cstackCOMRAM 000026
__tdiv_to_l_@f1           cstackCOMRAM 000018
__tdiv_to_l_@f2           cstackCOMRAM 00001B
__tdiv_to_l_@quot         cstackCOMRAM 000021
_a                        bssCOMRAM    000037
_adcVal                   bssBANK0     0000B3
_b                        bssCOMRAM    000035
_borrarTexto              text65       002B4E
_contador                 text1        001AD2
_cuenMos                  bssCOMRAM    000043
_cuenObj                  bssCOMRAM    000033
_cuenta                   bssCOMRAM    000039
_d                        bssBANK0     0000B6
_dis                      bssCOMRAM    000042
_dpowers                  mediumconst  007F2D
_escribirDig              text71       0028CC
_etimeout                 bssCOMRAM    000041
_fin                      text2        001D5E
_flagADC                  bssBANK0     0000BC
_flagCont                 bssBANK0     0000BE
_flagDig                  bssCOMRAM    00003D
_flagEmergencia           bssCOMRAM    00003B
_flagEscribir             bssCOMRAM    00003F
_flagFin                  bssBANK0     0000C0
_flagInicio               bssBANK0     0000C2
_flagLuz                  dataCOMRAM   000045
_flagObjeto               bssBANK0     0000BA
_fround                   text34       000B76
_fround$1091              cstackBANK0  00006C
_fround$1092              cstackBANK0  000069
_interfaz                 dataCOMRAM   000047
_isdigit                  text33       002D36
_isdigit$854              cstackCOMRAM 000019
_luzFondo                 text69       002BBC
_main                     text0        000F06
_ok                       text53       00109C
_parEmerg                 text9        002A6A
_piezFalt                 bssCOMRAM    000031
_printf                   text28       000012
_printf$1094              cstackBANK0  00008D
_putch                    text32       002E06
_pwm                      bssBANK0     0000B0
_reiCon                   text4        002660
_scale                    text29       000804
_scale$1093               cstackBANK0  000069
_u                        bssBANK0     0000B8
btemp                     temp         000048
contador@dis              cstackCOMRAM 000028
end_of_initialization     cinit        0029DC
escribirDig@lectura       cstackCOMRAM 000006
fround@prec               cstackBANK0  00006F
i2DireccionaLCD@a         cstackCOMRAM 000005
i2EnviaDato@a             cstackCOMRAM 000004
i2EscribeLCD_c@a          cstackCOMRAM 000005
i2EscribeLCD_n8@a         cstackCOMRAM 00000D
i2EscribeLCD_n8@b         cstackCOMRAM 000009
i2EscribeLCD_n8@centena   cstackCOMRAM 00000A
i2EscribeLCD_n8@decena    cstackCOMRAM 00000B
i2EscribeLCD_n8@unidad    cstackCOMRAM 00000C
i2MedirDistancia@aux      cstackCOMRAM 00000A
i2MensajeLCD_Var@a        cstackCOMRAM 000006
i2RetardoLCD@a            cstackCOMRAM 000002
i2_BorraLCD               text68       002DD6
i2_DireccionaLCD          text67       002D96
i2_EnviaDato              text73       002960
i2_EscribeLCD_c           text72       002DAC
i2_EscribeLCD_n8          text60       00190C
i2_HabilitaLCD            text75       002DF8
i2_MedirDistancia         text63       00200C
i2_MensajeLCD_Var         text66       002C4C
i2_RGB                    text59       00234C
i2_RetardoLCD             text74       0027D2
i2_SEG                    text58       002E18
i2___awdiv                text57       002250
i2___awdiv@counter        cstackCOMRAM 000005
i2___awdiv@dividend       cstackCOMRAM 000001
i2___awdiv@divisor        cstackCOMRAM 000003
i2___awdiv@quotient       cstackCOMRAM 000007
i2___awdiv@sign           cstackCOMRAM 000006
i2___awmod                text56       00258C
i2___awmod@counter        cstackCOMRAM 000005
i2___awmod@dividend       cstackCOMRAM 000001
i2___awmod@divisor        cstackCOMRAM 000003
i2___awmod@sign           cstackCOMRAM 000006
i2___lbdiv                text62       002B16
i2___lbdiv@counter        cstackCOMRAM 000007
i2___lbdiv@dividend       cstackCOMRAM 000006
i2___lbdiv@divisor        cstackCOMRAM 000005
i2___lbdiv@quotient       cstackCOMRAM 000008
i2___lbmod                text61       002C9E
i2___lbmod@counter        cstackCOMRAM 000003
i2___lbmod@dividend       cstackCOMRAM 000002
i2___lbmod@divisor        cstackCOMRAM 000001
i2___lbmod@rem            cstackCOMRAM 000004
i2___lwdiv                text64       00287A
i2___lwdiv@counter        cstackCOMRAM 000007
i2___lwdiv@dividend       cstackCOMRAM 000001
i2___lwdiv@divisor        cstackCOMRAM 000003
i2___lwdiv@quotient       cstackCOMRAM 000005
i2___wmul                 text70       002CEC
i2___wmul@multiplicand    cstackCOMRAM 000003
i2___wmul@multiplier      cstackCOMRAM 000001
i2___wmul@product         cstackCOMRAM 000005
i2_contador               text54       001BAE
i2_fin                    text55       001EBA
i2_parEmerg               text52       002AA4
i2_reiCon                 text51       0026C0
i2contador@dis            cstackCOMRAM 00000E
int$flags                 temp         000048
int_func                  intcode_body 001338
intlevel0                 text         000000
intlevel1                 text         000000
intlevel2                 text         000000
intlevel3                 text         000000
isa$std                   (abs)        000001
isa$xinst                 (abs)        000000
isdigit@c                 cstackCOMRAM 00001A
printf@ap                 cstackBANK0  000093
printf@c                  cstackBANK0  0000A5
printf@cp                 cstackBANK0  000090
printf@eexp               cstackBANK0  000096
printf@f                  cstackBANK0  000082
printf@flag               cstackBANK0  000094
printf@fval               cstackBANK0  0000A0
printf@len                cstackBANK0  000091
printf@prec               cstackBANK0  0000A3
printf@tmpval             cstackBANK0  000098
printf@val                cstackBANK0  00009C
putch@data                cstackCOMRAM 000018
scale@scl                 cstackBANK0  00006C
stackhi                   (abs)        000000
stacklo                   (abs)        000000
start                     init         00000E
start_initialization      cinit        0029A6
ttemp5                    temp         000049
ttemp6                    temp         00004C
ttemp7                    temp         000050
wtemp8                    temp         000049


MODULE INFORMATION

Module		Function		Class		Link	Load	Size
D:\Program Files\Microchip\xc8\v2.50\pic\sources\c90\common\awdiv.c
		___awdiv       		CODE           	214C	0000	130

D:\Program Files\Microchip\xc8\v2.50\pic\sources\c90\common\awdiv.c estimated size: 130

D:\Program Files\Microchip\xc8\v2.50\pic\sources\c90\common\ftge.c
		___ftge        		CODE           	23C6	0000	116

D:\Program Files\Microchip\xc8\v2.50\pic\sources\c90\common\ftge.c estimated size: 116

D:\Program Files\Microchip\xc8\v2.50\pic\sources\c90\common\ftadd.c
		___ftadd       		CODE           	0D60	0000	422

D:\Program Files\Microchip\xc8\v2.50\pic\sources\c90\common\ftadd.c estimated size: 422

D:\Program Files\Microchip\xc8\v2.50\pic\sources\c90\common\ftdivl.c
		__tdiv_to_l_   		CODE           	1458	0000	254

D:\Program Files\Microchip\xc8\v2.50\pic\sources\c90\common\ftdivl.c estimated size: 254

D:\Program Files\Microchip\xc8\v2.50\pic\sources\c90\common\Umul16.c
		___wmul        		CODE           	2CC6	0000	38

D:\Program Files\Microchip\xc8\v2.50\pic\sources\c90\common\Umul16.c estimated size: 38

D:\Program Files\Microchip\xc8\v2.50\pic\sources\c90\common\lbdiv.c
		___lbdiv       		CODE           	2ADE	0000	56

D:\Program Files\Microchip\xc8\v2.50\pic\sources\c90\common\lbdiv.c estimated size: 56

D:\Program Files\Microchip\xc8\v2.50\pic\sources\c90\common\ftneg.c
		___ftneg       		CODE           	2D12	0000	36

D:\Program Files\Microchip\xc8\v2.50\pic\sources\c90\common\ftneg.c estimated size: 36

D:\Program Files\Microchip\xc8\v2.50\pic\sources\c90\common\ftsub.c
		___ftsub       		CODE           	2A2A	0000	64

D:\Program Files\Microchip\xc8\v2.50\pic\sources\c90\common\ftsub.c estimated size: 64

D:\Program Files\Microchip\xc8\v2.50\pic\sources\c90\common\float.c
		___ftpack      		CODE           	1E0C	0000	174

D:\Program Files\Microchip\xc8\v2.50\pic\sources\c90\common\float.c estimated size: 174

D:\Program Files\Microchip\xc8\v2.50\pic\sources\c90\common\fldivl.c
		__div_to_l_    		CODE           	164C	0000	244

D:\Program Files\Microchip\xc8\v2.50\pic\sources\c90\common\fldivl.c estimated size: 244

D:\Program Files\Microchip\xc8\v2.50\pic\sources\c90\common\llmod.c
		___llmod       		CODE           	25FA	0000	102

D:\Program Files\Microchip\xc8\v2.50\pic\sources\c90\common\llmod.c estimated size: 102

D:\Program Files\Microchip\xc8\v2.50\pic\sources\c90\common\__lldiv.c
		___lldiv       		CODE           	21CE	0000	130

D:\Program Files\Microchip\xc8\v2.50\pic\sources\c90\common\__lldiv.c estimated size: 130

shared
		i2_MensajeLCD_Var		CODE           	2C4C	0000	42
		i2_fin         		CODE           	1EBA	0000	174
		i2___lbdiv     		CODE           	2B16	0000	56
		i2_contador    		CODE           	1BAE	0000	220
		i2_parEmerg    		CODE           	2AA4	0000	58
		__powers_      		MEDIUMCONST    	7EDF	0000	39
		i2___lbmod     		CODE           	2C9E	0000	40
		_dpowers       		MEDIUMCONST    	7F2D	0000	40
		i2___lwdiv     		CODE           	287A	0000	82
		i2_EscribeLCD_c		CODE           	2DAC	0000	22
		i2_EnviaDato   		CODE           	2960	0000	70
		i2___awdiv     		CODE           	2250	0000	130
		i2___wmul      		CODE           	2CEC	0000	38
		i2_SEG         		CODE           	2E18	0000	6
		i2_EscribeLCD_n8		CODE           	190C	0000	230
		__npowers_     		MEDIUMCONST    	7F06	0000	39
		__initialization		CODE           	29A6	0000	54
		i2_DireccionaLCD		CODE           	2D96	0000	22
		i2_HabilitaLCD 		CODE           	2DF8	0000	14
		i2_MedirDistancia		CODE           	200C	0000	164
		i2___awmod     		CODE           	258C	0000	110
		i2_BorraLCD    		CODE           	2DD6	0000	20
		i2_RGB         		CODE           	234C	0000	122
		i2_RetardoLCD  		CODE           	27D2	0000	86
		i2_reiCon      		CODE           	26C0	0000	96

shared estimated size: 1974

LibLCDXC9.h
		_DireccionaLCD 		CODE           	2D6A	0000	22
		_InicializaLCD 		CODE           	20B0	0000	156
		_EnviaDato     		CODE           	291A	0000	70
		_CursorAInicio 		CODE           	2E22	0000	2
		_MensajeLCD_Var		CODE           	2C22	0000	42
		_CaracterCara  		CODE           	24AC	0000	114
		_EscribeLCD_c  		CODE           	2D80	0000	22
		_CaracterQbert 		CODE           	243A	0000	114
		_HabilitaLCD   		CODE           	2DEA	0000	14
		_EscribeLCD_n8 		CODE           	1740	0000	230
		_ConfiguraLCD  		CODE           	2D52	0000	24
		_BorraLCD      		CODE           	2DC2	0000	20
		_RetardoLCD    		CODE           	277C	0000	86
		_ComandoLCD    		CODE           	2BF0	0000	50

LibLCDXC9.h estimated size: 966

D:\Program Files\Microchip\xc8\v2.50\pic\sources\c90\common\ftmul.c
		___ftmul       		CODE           	1556	0000	246

D:\Program Files\Microchip\xc8\v2.50\pic\sources\c90\common\ftmul.c estimated size: 246

D:\Program Files\Microchip\xc8\v2.50\pic\sources\c90\common\awtoft.c
		___awtoft      		CODE           	2B86	0000	54

D:\Program Files\Microchip\xc8\v2.50\pic\sources\c90\common\awtoft.c estimated size: 54

D:\Program Files\Microchip\xc8\v2.50\pic\sources\c90\common\awmod.c
		___awmod       		CODE           	251E	0000	110

D:\Program Files\Microchip\xc8\v2.50\pic\sources\c90\common\awmod.c estimated size: 110

D:\Program Files\Microchip\xc8\v2.50\pic\sources\c90\common\ftdiv.c
		___ftdiv       		CODE           	1826	0000	230

D:\Program Files\Microchip\xc8\v2.50\pic\sources\c90\common\ftdiv.c estimated size: 230

Lab6.c
		_RecibirComando		CODE           	11EE	0000	330
		_ADC           		CODE           	19F2	0000	224
		_parEmerg      		CODE           	2A6A	0000	58
		_fin           		CODE           	1D5E	0000	174
		_ISR           		CODE           	0008	0000	294
		_putch         		CODE           	2E06	0000	12
		_main          		CODE           	0F06	0000	406
		_RGB           		CODE           	22D2	0000	122
		_SEG           		CODE           	2E12	0000	6
		_ok            		CODE           	109C	0000	338
		_Transmitir    		CODE           	29EA	0000	64
		_reiCon        		CODE           	2660	0000	96
		_contador      		CODE           	1AD2	0000	220
		_escribirDig   		CODE           	28CC	0000	78
		_luzFondo      		CODE           	2BBC	0000	52
		_MedirDistancia		CODE           	1F68	0000	164
		_borrarTexto   		CODE           	2B4E	0000	56

Lab6.c estimated size: 2694

D:\Program Files\Microchip\xc8\v2.50\pic\sources\c90\common\lwdiv.c
		___lwdiv       		CODE           	2828	0000	82

D:\Program Files\Microchip\xc8\v2.50\pic\sources\c90\common\lwdiv.c estimated size: 82

D:\Program Files\Microchip\xc8\v2.50\pic\sources\c90\common\lbmod.c
		___lbmod       		CODE           	2C76	0000	40

D:\Program Files\Microchip\xc8\v2.50\pic\sources\c90\common\lbmod.c estimated size: 40

D:\Program Files\Microchip\xc8\v2.50\pic\sources\c90\common\doprnt.c
		_scale         		CODE           	0804	0000	882
		_printf        		CODE           	0012	0000	2034
		_fround        		CODE           	0B76	0000	490

D:\Program Files\Microchip\xc8\v2.50\pic\sources\c90\common\doprnt.c estimated size: 3406

D:\Program Files\Microchip\xc8\v2.50\pic\sources\c90\common\lltoft.c
		___lltoft      		CODE           	2720	0000	92

D:\Program Files\Microchip\xc8\v2.50\pic\sources\c90\common\lltoft.c estimated size: 92

D:\Program Files\Microchip\xc8\v2.50\pic\sources\c90\common\isdigit.c
		_isdigit       		CODE           	2D36	0000	28

D:\Program Files\Microchip\xc8\v2.50\pic\sources\c90\common\isdigit.c estimated size: 28

D:\Program Files\Microchip\xc8\v2.50\pic\sources\c90\common\fttol.c
		___fttol       		CODE           	1C8A	0000	212

D:\Program Files\Microchip\xc8\v2.50\pic\sources\c90\common\fttol.c estimated size: 212

